; Function Attrs: mustprogress uwtable
define noundef range(i32 0, 2) i32 @_Z24grpc_get_tsi_tls_version16grpc_tls_version(i32 noundef %0) local_unnamed_addr #4 personality ptr @__gxx_personality_v0 {
  %2 = alloca %"class.absl::lts_20240722::log_internal::LogMessage", align 8
  %switch = icmp ult i32 %0, 2
  br i1 %switch, label %6, label %3

3:                                                ; preds = %1
  call void @llvm.lifetime.start.p0(i64 16, ptr nonnull %2) #30
  call void @_ZN4absl12lts_2024072212log_internal10LogMessageC1EPKciNS2_7InfoTagE(ptr noundef nonnull align 8 dereferenceable(16) %2, ptr noundef nonnull @.str, i32 noundef 124) #33
  invoke void @_ZN4absl12lts_2024072212log_internal10LogMessage19CopyToEncodedBufferILNS2_10StringTypeE0EEEvSt17basic_string_viewIcSt11char_traitsIcEE(ptr noundef nonnull align 8 dereferenceable(16) %2, i64 24, ptr nonnull @.str.1)
          to label %_ZN4absl12lts_2024072212log_internal10LogMessagelsILi25EEERS2_RAT__Kc.exit unwind label %4

_ZN4absl12lts_2024072212log_internal10LogMessagelsILi25EEERS2_RAT__Kc.exit: ; preds = %3
  call void @_ZN4absl12lts_2024072212log_internal10LogMessageD1Ev(ptr noundef nonnull align 8 dereferenceable(16) %2) #34
  call void @llvm.lifetime.end.p0(i64 16, ptr nonnull %2) #30
  br label %6

4:                                                ; preds = %3
  %5 = landingpad { ptr, i32 }
          cleanup
  call void @_ZN4absl12lts_2024072212log_internal10LogMessageD1Ev(ptr noundef nonnull align 8 dereferenceable(16) %2) #34
  call void @llvm.lifetime.end.p0(i64 16, ptr nonnull %2) #30
  resume { ptr, i32 } %5

6:                                                ; preds = %1, %_ZN4absl12lts_2024072212log_internal10LogMessagelsILi25EEERS2_RAT__Kc.exit
  %.0 = phi i32 [ 0, %_ZN4absl12lts_2024072212log_internal10LogMessagelsILi25EEERS2_RAT__Kc.exit ], [ %0, %1 ]
  ret i32 %.0
}